target datalayout = "e-m:e-p270:32:32-p271:32:32-p272:64:64-i64:64-i128:128-f80:128-n8:16:32:64-S128"
target triple = "x86_64-pc-linux-gnu"

%"class.llvm::SmallVector" = type { %"class.llvm::SmallVectorImpl", %"struct.llvm::SmallVectorStorage" }
%"class.llvm::SmallVectorImpl" = type { %"class.llvm::SmallVectorTemplateBase" }
%"class.llvm::SmallVectorTemplateBase" = type { %"class.llvm::SmallVectorTemplateCommon" }
%"class.llvm::SmallVectorTemplateCommon" = type { %"class.llvm::SmallVectorBase" }
%"class.llvm::SmallVectorBase" = type { ptr, i32, i32 }
%"struct.llvm::SmallVectorStorage" = type { [24 x i8] }
%"class.llvm::SmallVector.13" = type { %"class.llvm::SmallVectorImpl.14", %"struct.llvm::SmallVectorStorage.17" }
%"class.llvm::SmallVectorImpl.14" = type { %"class.llvm::SmallVectorTemplateBase.15" }
%"class.llvm::SmallVectorTemplateBase.15" = type { %"class.llvm::SmallVectorTemplateCommon.16" }
%"class.llvm::SmallVectorTemplateCommon.16" = type { %"class.llvm::SmallVectorBase" }
%"struct.llvm::SmallVectorStorage.17" = type { [128 x i8] }
%"class.std::__cxx11::basic_string" = type { %"struct.std::__cxx11::basic_string<char>::_Alloc_hider", i64, %union.anon }
%"struct.std::__cxx11::basic_string<char>::_Alloc_hider" = type { ptr }
%union.anon = type { i64, [8 x i8] }
%"class.std::vector.31" = type { %"struct.std::_Vector_base.32" }
%"struct.std::_Vector_base.32" = type { %"struct.std::_Vector_base<std::__cxx11::basic_string<char>, std::allocator<std::__cxx11::basic_string<char>>>::_Vector_impl" }
%"struct.std::_Vector_base<std::__cxx11::basic_string<char>, std::allocator<std::__cxx11::basic_string<char>>>::_Vector_impl" = type { %"struct.std::_Vector_base<std::__cxx11::basic_string<char>, std::allocator<std::__cxx11::basic_string<char>>>::_Vector_impl_data" }
%"struct.std::_Vector_base<std::__cxx11::basic_string<char>, std::allocator<std::__cxx11::basic_string<char>>>::_Vector_impl_data" = type { ptr, ptr, ptr }
%"struct.std::pair.166" = type { i32, ptr }
%"class.llvm::iterator_range" = type { ptr, ptr }
%"class.clang::driver::Command" = type <{ ptr, ptr, ptr, %"struct.clang::driver::ResponseFileSupport", ptr, ptr, %"class.llvm::SmallVector.13", %"class.std::vector.140", %"class.std::vector.31", ptr, %"class.llvm::SmallVector.13", %"class.std::__cxx11::basic_string", %"class.std::vector.145", %"class.std::vector.150", %"class.std::optional.155", i8, i8, [6 x i8] }>
%"struct.clang::driver::ResponseFileSupport" = type { i32, i32, ptr }
%"class.std::vector.140" = type { %"struct.std::_Vector_base.141" }
%"struct.std::_Vector_base.141" = type { %"struct.std::_Vector_base<clang::driver::InputInfo, std::allocator<clang::driver::InputInfo>>::_Vector_impl" }
%"struct.std::_Vector_base<clang::driver::InputInfo, std::allocator<clang::driver::InputInfo>>::_Vector_impl" = type { %"struct.std::_Vector_base<clang::driver::InputInfo, std::allocator<clang::driver::InputInfo>>::_Vector_impl_data" }
%"struct.std::_Vector_base<clang::driver::InputInfo, std::allocator<clang::driver::InputInfo>>::_Vector_impl_data" = type { ptr, ptr, ptr }
%"class.std::vector.145" = type { %"struct.std::_Vector_base.146" }
%"struct.std::_Vector_base.146" = type { %"struct.std::_Vector_base<const char *, std::allocator<const char *>>::_Vector_impl" }
%"struct.std::_Vector_base<const char *, std::allocator<const char *>>::_Vector_impl" = type { %"struct.std::_Vector_base<const char *, std::allocator<const char *>>::_Vector_impl_data" }
%"struct.std::_Vector_base<const char *, std::allocator<const char *>>::_Vector_impl_data" = type { ptr, ptr, ptr }
%"class.std::vector.150" = type { %"struct.std::_Vector_base.151" }
%"struct.std::_Vector_base.151" = type { %"struct.std::_Vector_base<std::optional<std::__cxx11::basic_string<char>>, std::allocator<std::optional<std::__cxx11::basic_string<char>>>>::_Vector_impl" }
%"struct.std::_Vector_base<std::optional<std::__cxx11::basic_string<char>>, std::allocator<std::optional<std::__cxx11::basic_string<char>>>>::_Vector_impl" = type { %"struct.std::_Vector_base<std::optional<std::__cxx11::basic_string<char>>, std::allocator<std::optional<std::__cxx11::basic_string<char>>>>::_Vector_impl_data" }
%"struct.std::_Vector_base<std::optional<std::__cxx11::basic_string<char>>, std::allocator<std::optional<std::__cxx11::basic_string<char>>>>::_Vector_impl_data" = type { ptr, ptr, ptr }
%"class.std::optional.155" = type { %"struct.std::_Optional_base.156" }
%"struct.std::_Optional_base.156" = type { %"struct.std::_Optional_payload.158" }
%"struct.std::_Optional_payload.158" = type { %"struct.std::_Optional_payload_base.base.160", [7 x i8] }
%"struct.std::_Optional_payload_base.base.160" = type <{ %"union.std::_Optional_payload_base<llvm::sys::ProcessStatistics>::_Storage", i8 }>
%"union.std::_Optional_payload_base<llvm::sys::ProcessStatistics>::_Storage" = type { %"struct.llvm::sys::ProcessStatistics" }
%"struct.llvm::sys::ProcessStatistics" = type { %"class.std::chrono::duration", %"class.std::chrono::duration", i64 }
%"class.std::chrono::duration" = type { i64 }
%"class.clang::driver::Action" = type { ptr, i32, i32, %"class.llvm::SmallVector", i8, i32, i32, ptr, ptr }

; Function Attrs: mustprogress nounwind uwtable
define linkonce_odr hidden noundef ptr @_ZNK4llvm25SmallVectorTemplateCommonIPN5clang6driver6ActionEvE3endEv(ptr noundef nonnull align 8 dereferenceable(16) %0) #0 comdat align 2 {
  %2 = alloca ptr, align 8
  store ptr %0, ptr %2, align 8
  %3 = load ptr, ptr %2, align 8
  %4 = call noundef ptr @_ZNK4llvm25SmallVectorTemplateCommonIPN5clang6driver6ActionEvE5beginEv(ptr noundef nonnull align 8 dereferenceable(16) %3)
  %5 = call noundef i64 @_ZNK4llvm15SmallVectorBaseIjE4sizeEv(ptr noundef nonnull align 8 dereferenceable(16) %3)
  %6 = getelementptr inbounds ptr, ptr %4, i64 %5
  ret ptr %6
}

; Function Attrs: mustprogress nounwind uwtable
define linkonce_odr hidden noundef ptr @_ZNK4llvm25SmallVectorTemplateCommonIPN5clang6driver6ActionEvE5beginEv(ptr noundef nonnull align 8 dereferenceable(16) %0) #0 comdat align 2 {
  %2 = alloca ptr, align 8
  store ptr %0, ptr %2, align 8
  %3 = load ptr, ptr %2, align 8
  %4 = getelementptr inbounds nuw %"class.llvm::SmallVectorBase", ptr %3, i32 0, i32 0
  %5 = load ptr, ptr %4, align 8
  ret ptr %5
}

; Function Attrs: mustprogress nounwind uwtable
define linkonce_odr hidden void @_ZN4llvm14iterator_rangeIPKPN5clang6driver6ActionEEC2ES6_S6_(ptr noundef nonnull align 8 dereferenceable(16) %0, ptr noundef %1, ptr noundef %2) unnamed_addr #0 comdat align 2 {
  %4 = alloca ptr, align 8
  %5 = alloca ptr, align 8
  %6 = alloca ptr, align 8
  store ptr %0, ptr %4, align 8
  store ptr %1, ptr %5, align 8
  store ptr %2, ptr %6, align 8
  %7 = load ptr, ptr %4, align 8
  %8 = getelementptr inbounds nuw %"class.llvm::iterator_range", ptr %7, i32 0, i32 0
  %9 = load ptr, ptr %5, align 8
  store ptr %9, ptr %8, align 8
  %10 = getelementptr inbounds nuw %"class.llvm::iterator_range", ptr %7, i32 0, i32 1
  %11 = load ptr, ptr %6, align 8
  store ptr %11, ptr %10, align 8
  ret void
}

; Function Attrs: mustprogress nounwind uwtable
define linkonce_odr hidden noundef ptr @_ZNK5clang6driver6Action9input_endEv(ptr noundef nonnull align 8 dereferenceable(88) %0) #0 comdat align 2 {
  %2 = alloca ptr, align 8
  store ptr %0, ptr %2, align 8
  %3 = load ptr, ptr %2, align 8
  %4 = getelementptr inbounds nuw %"class.clang::driver::Action", ptr %3, i32 0, i32 3
  %5 = call noundef ptr @_ZNK4llvm25SmallVectorTemplateCommonIPN5clang6driver6ActionEvE3endEv(ptr noundef nonnull align 8 dereferenceable(16) %4)
  ret ptr %5
}

; Function Attrs: mustprogress nounwind uwtable
define linkonce_odr hidden noundef ptr @_ZNK5clang6driver6Action11input_beginEv(ptr noundef nonnull align 8 dereferenceable(88) %0) #0 comdat align 2 {
  %2 = alloca ptr, align 8
  store ptr %0, ptr %2, align 8
  %3 = load ptr, ptr %2, align 8
  %4 = getelementptr inbounds nuw %"class.clang::driver::Action", ptr %3, i32 0, i32 3
  %5 = call noundef ptr @_ZNK4llvm25SmallVectorTemplateCommonIPN5clang6driver6ActionEvE5beginEv(ptr noundef nonnull align 8 dereferenceable(16) %4)
  ret ptr %5
}

; Function Attrs: mustprogress nounwind uwtable
define linkonce_odr hidden noundef zeroext i1 @_ZNK5clang6driver6Action18isDeviceOffloadingENS1_11OffloadKindE(ptr noundef nonnull align 8 dereferenceable(88) %0, i32 noundef %1) #0 comdat align 2 {
  %3 = alloca ptr, align 8
  %4 = alloca i32, align 4
  store ptr %0, ptr %3, align 8
  store i32 %1, ptr %4, align 4
  %5 = load ptr, ptr %3, align 8
  %6 = getelementptr inbounds nuw %"class.clang::driver::Action", ptr %5, i32 0, i32 6
  %7 = load i32, ptr %6, align 8
  %8 = load i32, ptr %4, align 4
  %9 = icmp eq i32 %7, %8
  ret i1 %9
}

; Function Attrs: mustprogress nounwind uwtable
define linkonce_odr hidden noundef zeroext i1 @_ZNK5clang6driver6Action16isHostOffloadingEj(ptr noundef nonnull align 8 dereferenceable(88) %0, i32 noundef %1) #0 comdat align 2 {
  %3 = alloca ptr, align 8
  %4 = alloca i32, align 4
  store ptr %0, ptr %3, align 8
  store i32 %1, ptr %4, align 4
  %5 = load ptr, ptr %3, align 8
  %6 = getelementptr inbounds nuw %"class.clang::driver::Action", ptr %5, i32 0, i32 5
  %7 = load i32, ptr %6, align 4
  %8 = load i32, ptr %4, align 4
  %9 = and i32 %7, %8
  %10 = icmp ne i32 %9, 0
  ret i1 %10
}

; Function Attrs: mustprogress nounwind uwtable
define linkonce_odr hidden noundef ptr @_ZNK4llvm14iterator_rangeIPKPN5clang6driver6ActionEE3endEv(ptr noundef nonnull align 8 dereferenceable(16) %0) #0 comdat align 2 {
  %2 = alloca ptr, align 8
  store ptr %0, ptr %2, align 8
  %3 = load ptr, ptr %2, align 8
  %4 = getelementptr inbounds nuw %"class.llvm::iterator_range", ptr %3, i32 0, i32 1
  %5 = load ptr, ptr %4, align 8
  ret ptr %5
}

; Function Attrs: mustprogress nounwind uwtable
define linkonce_odr hidden noundef ptr @_ZNK4llvm14iterator_rangeIPKPN5clang6driver6ActionEE5beginEv(ptr noundef nonnull align 8 dereferenceable(16) %0) #0 comdat align 2 {
  %2 = alloca ptr, align 8
  store ptr %0, ptr %2, align 8
  %3 = load ptr, ptr %2, align 8
  %4 = getelementptr inbounds nuw %"class.llvm::iterator_range", ptr %3, i32 0, i32 0
  %5 = load ptr, ptr %4, align 8
  ret ptr %5
}

; Function Attrs: mustprogress nounwind uwtable
define linkonce_odr hidden { ptr, ptr } @_ZNK5clang6driver6Action6inputsEv(ptr noundef nonnull align 8 dereferenceable(88) %0) #0 comdat align 2 {
  %2 = alloca %"class.llvm::iterator_range", align 8
  %3 = alloca ptr, align 8
  store ptr %0, ptr %3, align 8
  %4 = load ptr, ptr %3, align 8
  %5 = call noundef ptr @_ZNK5clang6driver6Action11input_beginEv(ptr noundef nonnull align 8 dereferenceable(88) %4)
  %6 = call noundef ptr @_ZNK5clang6driver6Action9input_endEv(ptr noundef nonnull align 8 dereferenceable(88) %4)
  call void @_ZN4llvm14iterator_rangeIPKPN5clang6driver6ActionEEC2ES6_S6_(ptr noundef nonnull align 8 dereferenceable(16) %2, ptr noundef %5, ptr noundef %6)
  %7 = load { ptr, ptr }, ptr %2, align 8
  ret { ptr, ptr } %7
}

; Function Attrs: mustprogress nounwind uwtable
define linkonce_odr hidden noundef nonnull align 8 dereferenceable(88) ptr @_ZNK5clang6driver7Command9getSourceEv(ptr noundef nonnull align 8 dereferenceable(514) %0) #0 comdat align 2 {
  %2 = alloca ptr, align 8
  store ptr %0, ptr %2, align 8
  %3 = load ptr, ptr %2, align 8
  %4 = getelementptr inbounds nuw %"class.clang::driver::Command", ptr %3, i32 0, i32 1
  %5 = load ptr, ptr %4, align 8
  ret ptr %5
}

; Function Attrs: mustprogress nounwind uwtable
define linkonce_odr hidden noundef ptr @_ZNK4llvm25SmallVectorTemplateCommonISt4pairIiPKN5clang6driver7CommandEEvE3endEv(ptr noundef nonnull align 8 dereferenceable(16) %0) #0 comdat align 2 {
  %2 = alloca ptr, align 8
  store ptr %0, ptr %2, align 8
  %3 = load ptr, ptr %2, align 8
  %4 = call noundef ptr @_ZNK4llvm25SmallVectorTemplateCommonISt4pairIiPKN5clang6driver7CommandEEvE5beginEv(ptr noundef nonnull align 8 dereferenceable(16) %3)
  %5 = call noundef i64 @_ZNK4llvm15SmallVectorBaseIjE4sizeEv(ptr noundef nonnull align 8 dereferenceable(16) %3)
  %6 = getelementptr inbounds %"struct.std::pair.166", ptr %4, i64 %5
  ret ptr %6
}

; Function Attrs: mustprogress nounwind uwtable
define linkonce_odr hidden noundef ptr @_ZNK4llvm25SmallVectorTemplateCommonISt4pairIiPKN5clang6driver7CommandEEvE5beginEv(ptr noundef nonnull align 8 dereferenceable(16) %0) #0 comdat align 2 {
  %2 = alloca ptr, align 8
  store ptr %0, ptr %2, align 8
  %3 = load ptr, ptr %2, align 8
  %4 = getelementptr inbounds nuw %"class.llvm::SmallVectorBase", ptr %3, i32 0, i32 0
  %5 = load ptr, ptr %4, align 8
  ret ptr %5
}

; Function Attrs: mustprogress nounwind uwtable
define linkonce_odr hidden noundef zeroext i1 @_ZNK5clang6driver6Action12isOffloadingENS1_11OffloadKindE(ptr noundef nonnull align 8 dereferenceable(88) %0, i32 noundef %1) #0 comdat align 2 {
  %3 = alloca ptr, align 8
  %4 = alloca i32, align 4
  store ptr %0, ptr %3, align 8
  store i32 %1, ptr %4, align 4
  %5 = load ptr, ptr %3, align 8
  %6 = load i32, ptr %4, align 4
  %7 = call noundef zeroext i1 @_ZNK5clang6driver6Action16isHostOffloadingEj(ptr noundef nonnull align 8 dereferenceable(88) %5, i32 noundef %6)
  br i1 %7, label %11, label %8

8:                                                ; preds = %2
  %9 = load i32, ptr %4, align 4
  %10 = call noundef zeroext i1 @_ZNK5clang6driver6Action18isDeviceOffloadingENS1_11OffloadKindE(ptr noundef nonnull align 8 dereferenceable(88) %5, i32 noundef %9)
  br label %11

11:                                               ; preds = %8, %2
  %12 = phi i1 [ true, %2 ], [ %10, %8 ]
  ret i1 %12
}

; Function Attrs: mustprogress nounwind uwtable
define internal noundef zeroext i1 @_ZL12ActionFailedPKN5clang6driver6ActionERKN4llvm15SmallVectorImplISt4pairIiPKNS0_7CommandEEEE(ptr noundef %0, ptr noundef nonnull align 8 dereferenceable(16) %1) #0 {
  %3 = alloca i1, align 1
  %4 = alloca ptr, align 8
  %5 = alloca ptr, align 8
  %6 = alloca ptr, align 8
  %7 = alloca ptr, align 8
  %8 = alloca ptr, align 8
  %9 = alloca ptr, align 8
  %10 = alloca ptr, align 8
  %11 = alloca %"class.llvm::iterator_range", align 8
  %12 = alloca ptr, align 8
  %13 = alloca ptr, align 8
  %14 = alloca ptr, align 8
  store ptr %0, ptr %4, align 8
  store ptr %1, ptr %5, align 8
  %15 = load ptr, ptr %5, align 8
  %16 = call noundef zeroext i1 @_ZNK4llvm15SmallVectorBaseIjE5emptyEv(ptr noundef nonnull align 8 dereferenceable(16) %15)
  br i1 %16, label %17, label %18

17:                                               ; preds = %2
  store i1 false, ptr %3, align 1
  br label %75

18:                                               ; preds = %2
  %19 = load ptr, ptr %4, align 8
  %20 = call noundef zeroext i1 @_ZNK5clang6driver6Action12isOffloadingENS1_11OffloadKindE(ptr noundef nonnull align 8 dereferenceable(88) %19, i32 noundef 2)
  br i1 %20, label %24, label %21

21:                                               ; preds = %18
  %22 = load ptr, ptr %4, align 8
  %23 = call noundef zeroext i1 @_ZNK5clang6driver6Action12isOffloadingENS1_11OffloadKindE(ptr noundef nonnull align 8 dereferenceable(88) %22, i32 noundef 8)
  br i1 %23, label %24, label %25

24:                                               ; preds = %21, %18
  store i1 true, ptr %3, align 1
  br label %75

25:                                               ; preds = %21
  %26 = load ptr, ptr %5, align 8
  store ptr %26, ptr %6, align 8
  %27 = load ptr, ptr %6, align 8
  %28 = call noundef ptr @_ZNK4llvm25SmallVectorTemplateCommonISt4pairIiPKN5clang6driver7CommandEEvE5beginEv(ptr noundef nonnull align 8 dereferenceable(16) %27)
  store ptr %28, ptr %7, align 8
  %29 = load ptr, ptr %6, align 8
  %30 = call noundef ptr @_ZNK4llvm25SmallVectorTemplateCommonISt4pairIiPKN5clang6driver7CommandEEvE3endEv(ptr noundef nonnull align 8 dereferenceable(16) %29)
  store ptr %30, ptr %8, align 8
  br label %31

31:                                               ; preds = %45, %25
  %32 = load ptr, ptr %7, align 8
  %33 = load ptr, ptr %8, align 8
  %34 = icmp ne ptr %32, %33
  br i1 %34, label %35, label %48

35:                                               ; preds = %31
  %36 = load ptr, ptr %7, align 8
  store ptr %36, ptr %9, align 8
  %37 = load ptr, ptr %4, align 8
  %38 = load ptr, ptr %9, align 8
  %39 = getelementptr inbounds nuw %"struct.std::pair.166", ptr %38, i32 0, i32 1
  %40 = load ptr, ptr %39, align 8
  %41 = call noundef nonnull align 8 dereferenceable(88) ptr @_ZNK5clang6driver7Command9getSourceEv(ptr noundef nonnull align 8 dereferenceable(514) %40)
  %42 = icmp eq ptr %37, %41
  br i1 %42, label %43, label %44

43:                                               ; preds = %35
  store i1 true, ptr %3, align 1
  br label %75

44:                                               ; preds = %35
  br label %45

45:                                               ; preds = %44
  %46 = load ptr, ptr %7, align 8
  %47 = getelementptr inbounds %"struct.std::pair.166", ptr %46, i32 1
  store ptr %47, ptr %7, align 8
  br label %31

48:                                               ; preds = %31
  %49 = load ptr, ptr %4, align 8
  %50 = call { ptr, ptr } @_ZNK5clang6driver6Action6inputsEv(ptr noundef nonnull align 8 dereferenceable(88) %49)
  %51 = getelementptr inbounds nuw { ptr, ptr }, ptr %11, i32 0, i32 0
  %52 = extractvalue { ptr, ptr } %50, 0
  store ptr %52, ptr %51, align 8
  %53 = getelementptr inbounds nuw { ptr, ptr }, ptr %11, i32 0, i32 1
  %54 = extractvalue { ptr, ptr } %50, 1
  store ptr %54, ptr %53, align 8
  store ptr %11, ptr %10, align 8
  %55 = load ptr, ptr %10, align 8
  %56 = call noundef ptr @_ZNK4llvm14iterator_rangeIPKPN5clang6driver6ActionEE5beginEv(ptr noundef nonnull align 8 dereferenceable(16) %55)
  store ptr %56, ptr %12, align 8
  %57 = load ptr, ptr %10, align 8
  %58 = call noundef ptr @_ZNK4llvm14iterator_rangeIPKPN5clang6driver6ActionEE3endEv(ptr noundef nonnull align 8 dereferenceable(16) %57)
  store ptr %58, ptr %13, align 8
  br label %59

59:                                               ; preds = %71, %48
  %60 = load ptr, ptr %12, align 8
  %61 = load ptr, ptr %13, align 8
  %62 = icmp ne ptr %60, %61
  br i1 %62, label %63, label %74

63:                                               ; preds = %59
  %64 = load ptr, ptr %12, align 8
  %65 = load ptr, ptr %64, align 8
  store ptr %65, ptr %14, align 8
  %66 = load ptr, ptr %14, align 8
  %67 = load ptr, ptr %5, align 8
  %68 = call noundef zeroext i1 @_ZL12ActionFailedPKN5clang6driver6ActionERKN4llvm15SmallVectorImplISt4pairIiPKNS0_7CommandEEEE(ptr noundef %66, ptr noundef nonnull align 8 dereferenceable(16) %67)
  br i1 %68, label %69, label %70

69:                                               ; preds = %63
  store i1 true, ptr %3, align 1
  br label %75

70:                                               ; preds = %63
  br label %71

71:                                               ; preds = %70
  %72 = load ptr, ptr %12, align 8
  %73 = getelementptr inbounds ptr, ptr %72, i32 1
  store ptr %73, ptr %12, align 8
  br label %59

74:                                               ; preds = %59
  store i1 false, ptr %3, align 1
  br label %75

75:                                               ; preds = %74, %69, %43, %24, %17
  %76 = load i1, ptr %3, align 1
  ret i1 %76
}