; Function Attrs: mustprogress nounwind uwtable
define internal fastcc noundef zeroext i1 @_ZL12ActionFailedPKN5clang6driver6ActionERKN4llvm15SmallVectorImplISt4pairIiPKNS0_7CommandEEEE(ptr noundef %0, ptr noundef nonnull align 8 dereferenceable(16) %1) unnamed_addr #0 {
  %3 = tail call noundef zeroext i1 @_ZNK4llvm15SmallVectorBaseIjE5emptyEv(ptr noundef nonnull align 8 dereferenceable(16) %1) #17
  br i1 %3, label %.loopexit, label %4

4:                                                ; preds = %2
  %5 = getelementptr inbounds nuw i8, ptr %0, i64 60
  %6 = load i32, ptr %5, align 4
  %7 = and i32 %6, 2
  %8 = icmp ne i32 %7, 0
  %9 = getelementptr inbounds nuw i8, ptr %0, i64 64
  %10 = load i32, ptr %9, align 8
  %11 = icmp eq i32 %10, 2
  %12 = select i1 %8, i1 true, i1 %11
  br i1 %12, label %.loopexit, label %13

13:                                               ; preds = %4
  %14 = and i32 %6, 8
  %15 = icmp ne i32 %14, 0
  %16 = icmp eq i32 %10, 8
  %17 = select i1 %15, i1 true, i1 %16
  br i1 %17, label %.loopexit, label %18

18:                                               ; preds = %13
  %19 = load ptr, ptr %1, align 8
  %20 = tail call noundef i64 @_ZNK4llvm15SmallVectorBaseIjE4sizeEv(ptr noundef nonnull align 8 dereferenceable(16) %1) #17
  %21 = getelementptr inbounds %"struct.std::pair.166", ptr %19, i64 %20
  %.not26 = icmp eq i64 %20, 0
  br i1 %.not26, label %._crit_edge, label %.lr.ph

22:                                               ; preds = %.lr.ph
  %23 = getelementptr inbounds i8, ptr %.02227, i64 16
  %.not = icmp eq ptr %23, %21
  br i1 %.not, label %._crit_edge, label %.lr.ph

.lr.ph:                                           ; preds = %18, %22
  %.02227 = phi ptr [ %23, %22 ], [ %19, %18 ]
  %24 = getelementptr inbounds nuw i8, ptr %.02227, i64 8
  %25 = load ptr, ptr %24, align 8
  %26 = getelementptr inbounds nuw i8, ptr %25, i64 8
  %27 = load ptr, ptr %26, align 8
  %28 = icmp eq ptr %0, %27
  br i1 %28, label %.loopexit, label %22

._crit_edge:                                      ; preds = %22, %18
  %29 = getelementptr inbounds nuw i8, ptr %0, i64 16
  %30 = load ptr, ptr %29, align 8
  %31 = tail call noundef i64 @_ZNK4llvm15SmallVectorBaseIjE4sizeEv(ptr noundef nonnull align 8 dereferenceable(16) %29) #17
  %32 = getelementptr inbounds ptr, ptr %30, i64 %31
  %.not2428 = icmp eq i64 %31, 0
  br i1 %.not2428, label %.loopexit, label %.lr.ph31

.lr.ph31:                                         ; preds = %._crit_edge, %.lr.ph31
  %.02329 = phi ptr [ %35, %.lr.ph31 ], [ %30, %._crit_edge ]
  %33 = load ptr, ptr %.02329, align 8
  %34 = tail call fastcc noundef zeroext i1 @_ZL12ActionFailedPKN5clang6driver6ActionERKN4llvm15SmallVectorImplISt4pairIiPKNS0_7CommandEEEE(ptr noundef %33, ptr noundef nonnull align 8 dereferenceable(16) %1)
  %35 = getelementptr inbounds i8, ptr %.02329, i64 8
  %.not24 = icmp eq ptr %35, %32
  %or.cond = select i1 %34, i1 true, i1 %.not24
  br i1 %or.cond, label %.loopexit, label %.lr.ph31

.loopexit:                                        ; preds = %.lr.ph, %.lr.ph31, %._crit_edge, %4, %13, %2
  %.0 = phi i1 [ false, %2 ], [ true, %13 ], [ true, %4 ], [ false, %._crit_edge ], [ %34, %.lr.ph31 ], [ true, %.lr.ph ]
  ret i1 %.0
}